; Function Attrs: alwaysinline norecurse nounwind ssp uwtable
define internal void @_ZN6open3d4core15ParallelForCPU_IZNS0_6kernelL20LaunchBinaryEWKernelIssFvPKvS5_PvEEEvRKNS0_7IndexerERKT1_EUllE_EEvRKNS0_6DeviceElRKT_.omp_outlined(ptr noalias noundef readonly captures(none) %0, ptr noalias readnone captures(none) %1, ptr noundef nonnull readonly align 8 captures(none) dereferenceable(8) %2, ptr noundef nonnull readonly align 8 captures(none) dereferenceable(16) %3) #16 personality ptr @__gxx_personality_v0 {
  %5 = alloca i64, align 8
  %6 = alloca i64, align 8
  %7 = alloca i64, align 8
  %8 = alloca i32, align 4
  %9 = load i64, ptr %2, align 8, !tbaa !11
  %10 = icmp sgt i64 %9, 0
  br i1 %10, label %11, label %99

11:                                               ; preds = %4
  %12 = add nsw i64 %9, -1
  call void @llvm.lifetime.start.p0(i64 8, ptr nonnull %5) #17
  store i64 0, ptr %5, align 8, !tbaa !11
  call void @llvm.lifetime.start.p0(i64 8, ptr nonnull %6) #17
  store i64 %12, ptr %6, align 8, !tbaa !11
  call void @llvm.lifetime.start.p0(i64 8, ptr nonnull %7) #17
  store i64 1, ptr %7, align 8, !tbaa !11
  call void @llvm.lifetime.start.p0(i64 4, ptr nonnull %8) #17
  store i32 0, ptr %8, align 4, !tbaa !40
  %13 = load i32, ptr %0, align 4, !tbaa !40
  call void @__kmpc_for_static_init_8(ptr nonnull @1, i32 %13, i32 34, ptr nonnull %8, ptr nonnull %5, ptr nonnull %6, ptr nonnull %7, i64 1, i64 1)
  %14 = load i64, ptr %6, align 8, !tbaa !11
  %15 = call i64 @llvm.smin.i64(i64 %14, i64 %12)
  store i64 %15, ptr %6, align 8, !tbaa !11
  %16 = load i64, ptr %5, align 8, !tbaa !11
  %.not21 = icmp sgt i64 %16, %15
  br i1 %.not21, label %._crit_edge, label %.lr.ph

.lr.ph:                                           ; preds = %11
  %17 = getelementptr inbounds nuw i8, ptr %3, i64 8
  br label %18

18:                                               ; preds = %.lr.ph, %_ZZN6open3d4core6kernelL20LaunchBinaryEWKernelIssFvPKvS4_PvEEEvRKNS0_7IndexerERKT1_ENKUllE_clEl.exit
  %.022 = phi i64 [ %16, %.lr.ph ], [ %97, %_ZZN6open3d4core6kernelL20LaunchBinaryEWKernelIssFvPKvS4_PvEEEvRKNS0_7IndexerERKT1_ENKUllE_clEl.exit ]
  %.val = load ptr, ptr %3, align 8, !tbaa !1283
  %.val13 = load ptr, ptr %17, align 8, !tbaa !1285
  %19 = load i64, ptr %.val, align 8
  %.not.i.i = icmp sgt i64 %19, 0
  br i1 %.not.i.i, label %20, label %_ZNK6open3d4core7Indexer11GetInputPtrIsEEPT_ll.exit13.i

20:                                               ; preds = %18
  %21 = getelementptr inbounds nuw i8, ptr %.val, i64 16
  %22 = icmp slt i64 %.022, 0
  br i1 %22, label %_ZNK6open3d4core7Indexer12GetOutputPtrIsEEPT_l.exit.i, label %23

23:                                               ; preds = %20
  %24 = getelementptr inbounds nuw i8, ptr %.val, i64 744
  %25 = load i8, ptr %24, align 1, !tbaa !75, !range !77, !noundef !78
  %26 = trunc nuw i8 %25 to i1
  br i1 %26, label %32, label %.preheader.i.i.i

.preheader.i.i.i:                                 ; preds = %23
  %27 = getelementptr inbounds nuw i8, ptr %.val, i64 832
  %28 = load i64, ptr %27, align 8, !tbaa !85
  %29 = icmp sgt i64 %28, 0
  br i1 %29, label %.lr.ph.i.i.i, label %._crit_edge.i.i.i

.lr.ph.i.i.i:                                     ; preds = %.preheader.i.i.i
  %30 = getelementptr inbounds nuw i8, ptr %.val, i64 792
  %31 = getelementptr inbounds nuw i8, ptr %.val, i64 80
  br label %37

32:                                               ; preds = %23
  %33 = load ptr, ptr %21, align 8, !tbaa !88
  %34 = getelementptr inbounds nuw i16, ptr %33, i64 %.022
  br label %_ZNK6open3d4core7Indexer11GetInputPtrIsEEPT_ll.exit.i

._crit_edge.i.i.i:                                ; preds = %37, %.preheader.i.i.i
  %.016.lcssa.i.i.i = phi i64 [ 0, %.preheader.i.i.i ], [ %44, %37 ]
  %35 = load ptr, ptr %21, align 8, !tbaa !88
  %36 = getelementptr inbounds i8, ptr %35, i64 %.016.lcssa.i.i.i
  br label %_ZNK6open3d4core7Indexer11GetInputPtrIsEEPT_ll.exit.i

37:                                               ; preds = %37, %.lr.ph.i.i.i
  %.022.i.i.i = phi i64 [ 0, %.lr.ph.i.i.i ], [ %46, %37 ]
  %.01621.i.i.i = phi i64 [ 0, %.lr.ph.i.i.i ], [ %44, %37 ]
  %.01720.i.i.i = phi i64 [ %.022, %.lr.ph.i.i.i ], [ %45, %37 ]
  %38 = getelementptr inbounds nuw [5 x i64], ptr %30, i64 0, i64 %.022.i.i.i
  %39 = load i64, ptr %38, align 8, !tbaa !11
  %40 = sdiv i64 %.01720.i.i.i, %39
  %41 = getelementptr inbounds nuw [5 x i64], ptr %31, i64 0, i64 %.022.i.i.i
  %42 = load i64, ptr %41, align 8, !tbaa !11
  %43 = mul nsw i64 %42, %40
  %44 = add nsw i64 %43, %.01621.i.i.i
  %45 = srem i64 %.01720.i.i.i, %39
  %46 = add nuw nsw i64 %.022.i.i.i, 1
  %exitcond.not.i.i.i = icmp eq i64 %46, %28
  br i1 %exitcond.not.i.i.i, label %._crit_edge.i.i.i, label %37, !llvm.loop !777

_ZNK6open3d4core7Indexer11GetInputPtrIsEEPT_ll.exit.i: ; preds = %._crit_edge.i.i.i, %32
  %.0.i.i = phi ptr [ %34, %32 ], [ %36, %._crit_edge.i.i.i ]
  %.not.i3.not.i = icmp eq i64 %19, 1
  br i1 %.not.i3.not.i, label %_ZNK6open3d4core7Indexer11GetInputPtrIsEEPT_ll.exit13.thread.i, label %47

47:                                               ; preds = %_ZNK6open3d4core7Indexer11GetInputPtrIsEEPT_ll.exit.i
  %48 = getelementptr inbounds nuw i8, ptr %.val, i64 120
  %49 = getelementptr inbounds nuw i8, ptr %.val, i64 745
  %50 = load i8, ptr %49, align 1, !tbaa !75, !range !77, !noundef !78
  %51 = trunc nuw i8 %50 to i1
  br i1 %51, label %57, label %.preheader.i.i5.i

.preheader.i.i5.i:                                ; preds = %47
  %52 = getelementptr inbounds nuw i8, ptr %.val, i64 832
  %53 = load i64, ptr %52, align 8, !tbaa !85
  %54 = icmp sgt i64 %53, 0
  br i1 %54, label %.lr.ph.i.i8.i, label %._crit_edge.i.i6.i

.lr.ph.i.i8.i:                                    ; preds = %.preheader.i.i5.i
  %55 = getelementptr inbounds nuw i8, ptr %.val, i64 792
  %56 = getelementptr inbounds nuw i8, ptr %.val, i64 184
  br label %62

57:                                               ; preds = %47
  %58 = load ptr, ptr %48, align 8, !tbaa !88
  %59 = getelementptr inbounds nuw i16, ptr %58, i64 %.022
  br label %_ZNK6open3d4core7Indexer11GetInputPtrIsEEPT_ll.exit13.thread.i

._crit_edge.i.i6.i:                               ; preds = %62, %.preheader.i.i5.i
  %.016.lcssa.i.i7.i = phi i64 [ 0, %.preheader.i.i5.i ], [ %69, %62 ]
  %60 = load ptr, ptr %48, align 8, !tbaa !88
  %61 = getelementptr inbounds i8, ptr %60, i64 %.016.lcssa.i.i7.i
  br label %_ZNK6open3d4core7Indexer11GetInputPtrIsEEPT_ll.exit13.thread.i

62:                                               ; preds = %62, %.lr.ph.i.i8.i
  %.022.i.i9.i = phi i64 [ 0, %.lr.ph.i.i8.i ], [ %71, %62 ]
  %.01621.i.i10.i = phi i64 [ 0, %.lr.ph.i.i8.i ], [ %69, %62 ]
  %.01720.i.i11.i = phi i64 [ %.022, %.lr.ph.i.i8.i ], [ %70, %62 ]
  %63 = getelementptr inbounds nuw [5 x i64], ptr %55, i64 0, i64 %.022.i.i9.i
  %64 = load i64, ptr %63, align 8, !tbaa !11
  %65 = sdiv i64 %.01720.i.i11.i, %64
  %66 = getelementptr inbounds nuw [5 x i64], ptr %56, i64 0, i64 %.022.i.i9.i
  %67 = load i64, ptr %66, align 8, !tbaa !11
  %68 = mul nsw i64 %67, %65
  %69 = add nsw i64 %68, %.01621.i.i10.i
  %70 = srem i64 %.01720.i.i11.i, %64
  %71 = add nuw nsw i64 %.022.i.i9.i, 1
  %exitcond.not.i.i12.i = icmp eq i64 %71, %53
  br i1 %exitcond.not.i.i12.i, label %._crit_edge.i.i6.i, label %62, !llvm.loop !777

_ZNK6open3d4core7Indexer11GetInputPtrIsEEPT_ll.exit13.i: ; preds = %18
  %72 = icmp slt i64 %.022, 0
  br i1 %72, label %_ZNK6open3d4core7Indexer12GetOutputPtrIsEEPT_l.exit.i, label %_ZNK6open3d4core7Indexer11GetInputPtrIsEEPT_ll.exit13.thread.i

_ZNK6open3d4core7Indexer11GetInputPtrIsEEPT_ll.exit13.thread.i: ; preds = %_ZNK6open3d4core7Indexer11GetInputPtrIsEEPT_ll.exit.i, %_ZNK6open3d4core7Indexer11GetInputPtrIsEEPT_ll.exit13.i, %._crit_edge.i.i6.i, %57
  %.0.i12.i = phi ptr [ null, %_ZNK6open3d4core7Indexer11GetInputPtrIsEEPT_ll.exit13.i ], [ %.0.i.i, %._crit_edge.i.i6.i ], [ %.0.i.i, %57 ], [ %.0.i.i, %_ZNK6open3d4core7Indexer11GetInputPtrIsEEPT_ll.exit.i ]
  %.0.i42.i = phi ptr [ null, %_ZNK6open3d4core7Indexer11GetInputPtrIsEEPT_ll.exit13.i ], [ %61, %._crit_edge.i.i6.i ], [ %59, %57 ], [ null, %_ZNK6open3d4core7Indexer11GetInputPtrIsEEPT_ll.exit.i ]
  %73 = getelementptr inbounds nuw i8, ptr %.val, i64 536
  %74 = getelementptr inbounds nuw i8, ptr %.val, i64 749
  %75 = load i8, ptr %74, align 1, !tbaa !75, !range !77, !noundef !78
  %76 = trunc nuw i8 %75 to i1
  br i1 %76, label %82, label %.preheader.i.i14.i

.preheader.i.i14.i:                               ; preds = %_ZNK6open3d4core7Indexer11GetInputPtrIsEEPT_ll.exit13.thread.i
  %77 = getelementptr inbounds nuw i8, ptr %.val, i64 832
  %78 = load i64, ptr %77, align 8, !tbaa !85
  %79 = icmp sgt i64 %78, 0
  br i1 %79, label %.lr.ph.i.i17.i, label %._crit_edge.i.i15.i

.lr.ph.i.i17.i:                                   ; preds = %.preheader.i.i14.i
  %80 = getelementptr inbounds nuw i8, ptr %.val, i64 792
  %81 = getelementptr inbounds nuw i8, ptr %.val, i64 600
  br label %87

82:                                               ; preds = %_ZNK6open3d4core7Indexer11GetInputPtrIsEEPT_ll.exit13.thread.i
  %83 = load ptr, ptr %73, align 8, !tbaa !88
  %84 = getelementptr inbounds nuw i16, ptr %83, i64 %.022
  br label %_ZNK6open3d4core7Indexer12GetOutputPtrIsEEPT_l.exit.i

._crit_edge.i.i15.i:                              ; preds = %87, %.preheader.i.i14.i
  %.016.lcssa.i.i16.i = phi i64 [ 0, %.preheader.i.i14.i ], [ %94, %87 ]
  %85 = load ptr, ptr %73, align 8, !tbaa !88
  %86 = getelementptr inbounds i8, ptr %85, i64 %.016.lcssa.i.i16.i
  br label %_ZNK6open3d4core7Indexer12GetOutputPtrIsEEPT_l.exit.i

87:                                               ; preds = %87, %.lr.ph.i.i17.i
  %.022.i.i18.i = phi i64 [ 0, %.lr.ph.i.i17.i ], [ %96, %87 ]
  %.01621.i.i19.i = phi i64 [ 0, %.lr.ph.i.i17.i ], [ %94, %87 ]
  %.01720.i.i20.i = phi i64 [ %.022, %.lr.ph.i.i17.i ], [ %95, %87 ]
  %88 = getelementptr inbounds nuw [5 x i64], ptr %80, i64 0, i64 %.022.i.i18.i
  %89 = load i64, ptr %88, align 8, !tbaa !11
  %90 = sdiv i64 %.01720.i.i20.i, %89
  %91 = getelementptr inbounds nuw [5 x i64], ptr %81, i64 0, i64 %.022.i.i18.i
  %92 = load i64, ptr %91, align 8, !tbaa !11
  %93 = mul nsw i64 %92, %90
  %94 = add nsw i64 %93, %.01621.i.i19.i
  %95 = srem i64 %.01720.i.i20.i, %89
  %96 = add nuw nsw i64 %.022.i.i18.i, 1
  %exitcond.not.i.i21.i = icmp eq i64 %96, %78
  br i1 %exitcond.not.i.i21.i, label %._crit_edge.i.i15.i, label %87, !llvm.loop !777

_ZNK6open3d4core7Indexer12GetOutputPtrIsEEPT_l.exit.i: ; preds = %20, %._crit_edge.i.i15.i, %82, %_ZNK6open3d4core7Indexer11GetInputPtrIsEEPT_ll.exit13.i
  %.0.i13.i = phi ptr [ %.0.i12.i, %82 ], [ %.0.i12.i, %._crit_edge.i.i15.i ], [ null, %_ZNK6open3d4core7Indexer11GetInputPtrIsEEPT_ll.exit13.i ], [ null, %20 ]
  %.0.i43.i = phi ptr [ %.0.i42.i, %82 ], [ %.0.i42.i, %._crit_edge.i.i15.i ], [ null, %_ZNK6open3d4core7Indexer11GetInputPtrIsEEPT_ll.exit13.i ], [ null, %20 ]
  %.018.i.i.i = phi ptr [ %84, %82 ], [ %86, %._crit_edge.i.i15.i ], [ null, %_ZNK6open3d4core7Indexer11GetInputPtrIsEEPT_ll.exit13.i ], [ null, %20 ]
  invoke void %.val13(ptr noundef %.0.i13.i, ptr noundef %.0.i43.i, ptr noundef %.018.i.i.i)
          to label %_ZZN6open3d4core6kernelL20LaunchBinaryEWKernelIssFvPKvS4_PvEEEvRKNS0_7IndexerERKT1_ENKUllE_clEl.exit unwind label %100

_ZZN6open3d4core6kernelL20LaunchBinaryEWKernelIssFvPKvS4_PvEEEvRKNS0_7IndexerERKT1_ENKUllE_clEl.exit: ; preds = %_ZNK6open3d4core7Indexer12GetOutputPtrIsEEPT_l.exit.i
  %97 = add nsw i64 %.022, 1
  %98 = load i64, ptr %6, align 8, !tbaa !11
  %.not.not = icmp slt i64 %.022, %98
  br i1 %.not.not, label %18, label %._crit_edge

._crit_edge:                                      ; preds = %_ZZN6open3d4core6kernelL20LaunchBinaryEWKernelIssFvPKvS4_PvEEEvRKNS0_7IndexerERKT1_ENKUllE_clEl.exit, %11
  call void @__kmpc_for_static_fini(ptr nonnull @1, i32 %13)
  call void @llvm.lifetime.end.p0(i64 4, ptr nonnull %8) #17
  call void @llvm.lifetime.end.p0(i64 8, ptr nonnull %7) #17
  call void @llvm.lifetime.end.p0(i64 8, ptr nonnull %6) #17
  call void @llvm.lifetime.end.p0(i64 8, ptr nonnull %5) #17
  br label %99

99:                                               ; preds = %._crit_edge, %4
  ret void

100:                                              ; preds = %_ZNK6open3d4core7Indexer12GetOutputPtrIsEEPT_l.exit.i
  %101 = landingpad { ptr, i32 }
          catch ptr null
  %102 = extractvalue { ptr, i32 } %101, 0
  call void @__clang_call_terminate(ptr %102) #35
  unreachable
}